(dp0
Vengine
p1
S'pdflatex'
p2
sVpackages
p3
c__builtin__
set
p4
((lp5
Vhyperref
p6
aVtikz
p7
aVxcolor
p8
aValgorithm
p9
aVamsmath
p10
aVdsfont
p11
aValgpseudocode
p12
aVamsfonts
p13
aVbalance
p14
aVgraphicx
p15
aVamssymb
p16
atp17
Rp18
sVfiles_with_guttermarks
p19
g4
((lp20
S'main_vldb.tex'
p21
atp22
Rp23
sVsynctex
p24
I01
s.