(dp0
Vengine
p1
S'pdflatex'
p2
sVpackages
p3
c__builtin__
set
p4
((lp5
Vhyperref
p6
aVtikz
p7
aVxcolor
p8
aValgorithm
p9
aVamsmath
p10
aVenumitem
p11
aValgpseudocode
p12
aVdsfont
p13
aVamsfonts
p14
aVbalance
p15
aVgraphicx
p16
aVamssymb
p17
atp18
Rp19
sVfiles_with_guttermarks
p20
g4
((lp21
V/Users/siddhartha/Repos/CSP/Writeup/./main_vldb.tex
p22
aS'main_vldb.tex'
p23
atp24
Rp25
sVsynctex
p26
I01
s.